; ModuleID = '5/1083.c'
source_filename = "5/1083.c"
target datalayout = "e-m:e-p270:32:32-p271:32:32-p272:64:64-i64:64-f80:128-n8:16:32:64-S128"
target triple = "x86_64-pc-linux-gnu"

@.str = private unnamed_addr constant [4 x i8] c"%lf\00", align 1
@.str.1 = private unnamed_addr constant [6 x i8] c"%s\0A%s\00", align 1
@.str.2 = private unnamed_addr constant [6 x i8] c"error\00", align 1
@.str.3 = private unnamed_addr constant [4 x i8] c"yes\00", align 1
@.str.4 = private unnamed_addr constant [3 x i8] c"no\00", align 1

; Function Attrs: noinline nounwind uwtable
define dso_local i32 @main() #0 {
  %1 = alloca i32, align 4
  %2 = alloca i32, align 4
  %3 = alloca [500 x i8], align 16
  %4 = alloca [500 x i8], align 16
  %5 = alloca double, align 8
  %6 = alloca double, align 8
  %7 = alloca double, align 8
  %8 = alloca double, align 8
  %9 = alloca double, align 8
  store i32 0, i32* %1, align 4
  %10 = call i32 (i8*, ...) @__isoc99_scanf(i8* getelementptr inbounds ([4 x i8], [4 x i8]* @.str, i64 0, i64 0), double* %5)
  %11 = getelementptr inbounds [500 x i8], [500 x i8]* %3, i64 0, i64 0
  %12 = getelementptr inbounds [500 x i8], [500 x i8]* %4, i64 0, i64 0
  %13 = call i32 (i8*, ...) @__isoc99_scanf(i8* getelementptr inbounds ([6 x i8], [6 x i8]* @.str.1, i64 0, i64 0), i8* %11, i8* %12)
  %14 = getelementptr inbounds [500 x i8], [500 x i8]* %3, i64 0, i64 0
  %15 = call i64 @strlen(i8* %14) #3
  %16 = uitofp i64 %15 to double
  store double %16, double* %8, align 8
  %17 = getelementptr inbounds [500 x i8], [500 x i8]* %4, i64 0, i64 0
  %18 = call i64 @strlen(i8* %17) #3
  %19 = uitofp i64 %18 to double
  store double %19, double* %9, align 8
  store i32 0, i32* %2, align 4
  br label %20

20:                                               ; preds = %104, %0
  %21 = load i32, i32* %2, align 4
  %22 = sitofp i32 %21 to double
  %23 = load double, double* %8, align 8
  %24 = fcmp olt double %22, %23
  br i1 %24, label %25, label %107

25:                                               ; preds = %20
  %26 = load double, double* %9, align 8
  %27 = load double, double* %8, align 8
  %28 = fcmp oeq double %26, %27
  br i1 %28, label %29, label %101

29:                                               ; preds = %25
  %30 = load i32, i32* %2, align 4
  %31 = sext i32 %30 to i64
  %32 = getelementptr inbounds [500 x i8], [500 x i8]* %3, i64 0, i64 %31
  %33 = load i8, i8* %32, align 1
  %34 = sext i8 %33 to i32
  %35 = icmp eq i32 %34, 65
  br i1 %35, label %85, label %36

36:                                               ; preds = %29
  %37 = load i32, i32* %2, align 4
  %38 = sext i32 %37 to i64
  %39 = getelementptr inbounds [500 x i8], [500 x i8]* %3, i64 0, i64 %38
  %40 = load i8, i8* %39, align 1
  %41 = sext i8 %40 to i32
  %42 = icmp eq i32 %41, 71
  br i1 %42, label %85, label %43

43:                                               ; preds = %36
  %44 = load i32, i32* %2, align 4
  %45 = sext i32 %44 to i64
  %46 = getelementptr inbounds [500 x i8], [500 x i8]* %3, i64 0, i64 %45
  %47 = load i8, i8* %46, align 1
  %48 = sext i8 %47 to i32
  %49 = icmp eq i32 %48, 67
  br i1 %49, label %85, label %50

50:                                               ; preds = %43
  %51 = load i32, i32* %2, align 4
  %52 = sext i32 %51 to i64
  %53 = getelementptr inbounds [500 x i8], [500 x i8]* %3, i64 0, i64 %52
  %54 = load i8, i8* %53, align 1
  %55 = sext i8 %54 to i32
  %56 = icmp eq i32 %55, 84
  br i1 %56, label %85, label %57

57:                                               ; preds = %50
  %58 = load i32, i32* %2, align 4
  %59 = sext i32 %58 to i64
  %60 = getelementptr inbounds [500 x i8], [500 x i8]* %4, i64 0, i64 %59
  %61 = load i8, i8* %60, align 1
  %62 = sext i8 %61 to i32
  %63 = icmp eq i32 %62, 65
  br i1 %63, label %85, label %64

64:                                               ; preds = %57
  %65 = load i32, i32* %2, align 4
  %66 = sext i32 %65 to i64
  %67 = getelementptr inbounds [500 x i8], [500 x i8]* %4, i64 0, i64 %66
  %68 = load i8, i8* %67, align 1
  %69 = sext i8 %68 to i32
  %70 = icmp eq i32 %69, 71
  br i1 %70, label %85, label %71

71:                                               ; preds = %64
  %72 = load i32, i32* %2, align 4
  %73 = sext i32 %72 to i64
  %74 = getelementptr inbounds [500 x i8], [500 x i8]* %4, i64 0, i64 %73
  %75 = load i8, i8* %74, align 1
  %76 = sext i8 %75 to i32
  %77 = icmp eq i32 %76, 67
  br i1 %77, label %85, label %78

78:                                               ; preds = %71
  %79 = load i32, i32* %2, align 4
  %80 = sext i32 %79 to i64
  %81 = getelementptr inbounds [500 x i8], [500 x i8]* %4, i64 0, i64 %80
  %82 = load i8, i8* %81, align 1
  %83 = sext i8 %82 to i32
  %84 = icmp ne i32 %83, 84
  br i1 %84, label %85, label %101

85:                                               ; preds = %78, %71, %64, %57, %50, %43, %36, %29
  %86 = load i32, i32* %2, align 4
  %87 = sext i32 %86 to i64
  %88 = getelementptr inbounds [500 x i8], [500 x i8]* %3, i64 0, i64 %87
  %89 = load i8, i8* %88, align 1
  %90 = sext i8 %89 to i32
  %91 = load i32, i32* %2, align 4
  %92 = sext i32 %91 to i64
  %93 = getelementptr inbounds [500 x i8], [500 x i8]* %4, i64 0, i64 %92
  %94 = load i8, i8* %93, align 1
  %95 = sext i8 %94 to i32
  %96 = icmp eq i32 %90, %95
  br i1 %96, label %97, label %100

97:                                               ; preds = %85
  %98 = load double, double* %7, align 8
  %99 = fadd double %98, 1.000000e+00
  store double %99, double* %7, align 8
  br label %100

100:                                              ; preds = %97, %85
  br label %103

101:                                              ; preds = %78, %25
  %102 = call i32 (i8*, ...) @printf(i8* getelementptr inbounds ([6 x i8], [6 x i8]* @.str.2, i64 0, i64 0))
  store i32 0, i32* %1, align 4
  br label %119

103:                                              ; preds = %100
  br label %104

104:                                              ; preds = %103
  %105 = load i32, i32* %2, align 4
  %106 = add nsw i32 %105, 1
  store i32 %106, i32* %2, align 4
  br label %20

107:                                              ; preds = %20
  %108 = load double, double* %7, align 8
  %109 = load double, double* %8, align 8
  %110 = fdiv double %108, %109
  store double %110, double* %6, align 8
  %111 = load double, double* %6, align 8
  %112 = load double, double* %5, align 8
  %113 = fcmp ogt double %111, %112
  br i1 %113, label %114, label %116

114:                                              ; preds = %107
  %115 = call i32 (i8*, ...) @printf(i8* getelementptr inbounds ([4 x i8], [4 x i8]* @.str.3, i64 0, i64 0))
  br label %118

116:                                              ; preds = %107
  %117 = call i32 (i8*, ...) @printf(i8* getelementptr inbounds ([3 x i8], [3 x i8]* @.str.4, i64 0, i64 0))
  br label %118

118:                                              ; preds = %116, %114
  store i32 0, i32* %1, align 4
  br label %119

119:                                              ; preds = %118, %101
  %120 = load i32, i32* %1, align 4
  ret i32 %120
}

declare dso_local i32 @__isoc99_scanf(i8*, ...) #1

; Function Attrs: nounwind readonly
declare dso_local i64 @strlen(i8*) #2

declare dso_local i32 @printf(i8*, ...) #1


!llvm.module.flags = !{!0}
!llvm.ident = !{!1}

!0 = !{i32 1, !"wchar_size", i32 4}
!1 = !{!"clang version 10.0.0-4ubuntu1 "}
